target datalayout = "e-m:e-p270:32:32-p271:32:32-p272:64:64-i64:64-i128:128-f80:128-n8:16:32:64-S128"
target triple = "x86_64-unknown-linux-gnu"

%"class.std::basic_ostream.base" = type { ptr }
%"class.std::__cxx11::basic_stringbuf" = type { %"class.std::basic_streambuf", i32, %"class.std::__cxx11::basic_string" }
%"class.std::basic_streambuf" = type { ptr, ptr, ptr, ptr, ptr, ptr, ptr, %"class.std::locale" }
%"class.std::locale" = type { ptr }
%"class.std::__cxx11::basic_string" = type { %"struct.std::__cxx11::basic_string<char>::_Alloc_hider", i64, %union.anon }
%"struct.std::__cxx11::basic_string<char>::_Alloc_hider" = type { ptr }
%union.anon = type { i64, [8 x i8] }
%"class.std::basic_ios" = type { %"class.std::ios_base", ptr, i8, i8, ptr, ptr, ptr, ptr }
%"class.std::ios_base" = type { ptr, i64, i64, i32, i32, i32, ptr, %"struct.std::ios_base::_Words", [8 x %"struct.std::ios_base::_Words"], i32, ptr, %"class.std::locale" }
%"struct.std::ios_base::_Words" = type { ptr, i64 }
%"class.std::__cxx11::basic_stringstream" = type { %"class.std::basic_iostream.base", %"class.std::__cxx11::basic_stringbuf", %"class.std::basic_ios" }
%"class.std::basic_iostream.base" = type { %"class.std::basic_istream.base", %"class.std::basic_ostream.base" }
%"class.std::basic_istream.base" = type { ptr, i64 }
%"class.std::allocator" = type { i8 }

@_ZN19OpenColorIO_v2_4dev12_GLOBAL__N_121GAMMA_STYLE_BASIC_FWDE = internal constant [9 x i8] c"basicFwd\00", align 1
@_ZN19OpenColorIO_v2_4dev12_GLOBAL__N_121GAMMA_STYLE_BASIC_REVE = internal constant [9 x i8] c"basicRev\00", align 1
@_ZN19OpenColorIO_v2_4dev12_GLOBAL__N_128GAMMA_STYLE_BASIC_MIRROR_FWDE = internal constant [15 x i8] c"basicMirrorFwd\00", align 1
@_ZN19OpenColorIO_v2_4dev12_GLOBAL__N_128GAMMA_STYLE_BASIC_MIRROR_REVE = internal constant [15 x i8] c"basicMirrorRev\00", align 1
@_ZN19OpenColorIO_v2_4dev12_GLOBAL__N_131GAMMA_STYLE_BASIC_PASS_THRU_FWDE = internal constant [17 x i8] c"basicPassThruFwd\00", align 16
@_ZN19OpenColorIO_v2_4dev12_GLOBAL__N_131GAMMA_STYLE_BASIC_PASS_THRU_REVE = internal constant [17 x i8] c"basicPassThruRev\00", align 16
@_ZN19OpenColorIO_v2_4dev12_GLOBAL__N_124GAMMA_STYLE_MONCURVE_FWDE = internal constant [12 x i8] c"monCurveFwd\00", align 1
@_ZN19OpenColorIO_v2_4dev12_GLOBAL__N_124GAMMA_STYLE_MONCURVE_REVE = internal constant [12 x i8] c"monCurveRev\00", align 1
@_ZN19OpenColorIO_v2_4dev12_GLOBAL__N_131GAMMA_STYLE_MONCURVE_MIRROR_FWDE = internal constant [18 x i8] c"monCurveMirrorFwd\00", align 16
@_ZN19OpenColorIO_v2_4dev12_GLOBAL__N_131GAMMA_STYLE_MONCURVE_MIRROR_REVE = internal constant [18 x i8] c"monCurveMirrorRev\00", align 16
@_ZTIN19OpenColorIO_v2_4dev9ExceptionE = external constant ptr
@.str.3 = private unnamed_addr constant [22 x i8] c"Unknown Gamma style: \00", align 1

; Function Attrs: mustprogress nounwind uwtable
define linkonce_odr noundef i32 @_ZStorSt13_Ios_OpenmodeS_(i32 noundef %__a, i32 noundef %__b) #5 comdat {
entry:
  %__a.addr = alloca i32, align 4
  %__b.addr = alloca i32, align 4
  store i32 %__a, ptr %__a.addr, align 4
  store i32 %__b, ptr %__b.addr, align 4
  %0 = load i32, ptr %__a.addr, align 4
  %1 = load i32, ptr %__b.addr, align 4
  %or = or i32 %0, %1
  ret i32 %or
}

; Function Attrs: mustprogress uwtable
define hidden noundef ptr @_ZN19OpenColorIO_v2_4dev11GammaOpData20ConvertStyleToStringENS0_5StyleE(i32 noundef %style) #4 align 2 personality ptr @__gxx_personality_v0 {
entry:
  %retval = alloca ptr, align 8
  %style.addr = alloca i32, align 4
  %ss = alloca %"class.std::__cxx11::basic_stringstream", align 8
  %ref.tmp = alloca %"class.std::__cxx11::basic_string", align 8
  %ref.tmp10 = alloca %"class.std::allocator", align 1
  %exn.slot = alloca ptr, align 8
  %ehselector.slot = alloca i32, align 4
  %ref.tmp17 = alloca %"class.std::__cxx11::basic_string", align 8
  %cleanup.isactive = alloca i1, align 1
  store i32 %style, ptr %style.addr, align 4
  %0 = load i32, ptr %style.addr, align 4
  switch i32 %0, label %sw.epilog [
    i32 0, label %sw.bb
    i32 1, label %sw.bb1
    i32 2, label %sw.bb2
    i32 3, label %sw.bb3
    i32 4, label %sw.bb4
    i32 5, label %sw.bb5
    i32 6, label %sw.bb6
    i32 7, label %sw.bb7
    i32 8, label %sw.bb8
    i32 9, label %sw.bb9
  ]

sw.bb:                                            ; preds = %entry
  store ptr @_ZN19OpenColorIO_v2_4dev12_GLOBAL__N_121GAMMA_STYLE_BASIC_FWDE, ptr %retval, align 8
  br label %return

sw.bb1:                                           ; preds = %entry
  store ptr @_ZN19OpenColorIO_v2_4dev12_GLOBAL__N_121GAMMA_STYLE_BASIC_REVE, ptr %retval, align 8
  br label %return

sw.bb2:                                           ; preds = %entry
  store ptr @_ZN19OpenColorIO_v2_4dev12_GLOBAL__N_128GAMMA_STYLE_BASIC_MIRROR_FWDE, ptr %retval, align 8
  br label %return

sw.bb3:                                           ; preds = %entry
  store ptr @_ZN19OpenColorIO_v2_4dev12_GLOBAL__N_128GAMMA_STYLE_BASIC_MIRROR_REVE, ptr %retval, align 8
  br label %return

sw.bb4:                                           ; preds = %entry
  store ptr @_ZN19OpenColorIO_v2_4dev12_GLOBAL__N_131GAMMA_STYLE_BASIC_PASS_THRU_FWDE, ptr %retval, align 8
  br label %return

sw.bb5:                                           ; preds = %entry
  store ptr @_ZN19OpenColorIO_v2_4dev12_GLOBAL__N_131GAMMA_STYLE_BASIC_PASS_THRU_REVE, ptr %retval, align 8
  br label %return

sw.bb6:                                           ; preds = %entry
  store ptr @_ZN19OpenColorIO_v2_4dev12_GLOBAL__N_124GAMMA_STYLE_MONCURVE_FWDE, ptr %retval, align 8
  br label %return

sw.bb7:                                           ; preds = %entry
  store ptr @_ZN19OpenColorIO_v2_4dev12_GLOBAL__N_124GAMMA_STYLE_MONCURVE_REVE, ptr %retval, align 8
  br label %return

sw.bb8:                                           ; preds = %entry
  store ptr @_ZN19OpenColorIO_v2_4dev12_GLOBAL__N_131GAMMA_STYLE_MONCURVE_MIRROR_FWDE, ptr %retval, align 8
  br label %return

sw.bb9:                                           ; preds = %entry
  store ptr @_ZN19OpenColorIO_v2_4dev12_GLOBAL__N_131GAMMA_STYLE_MONCURVE_MIRROR_REVE, ptr %retval, align 8
  br label %return

sw.epilog:                                        ; preds = %entry
  call void @_ZNSaIcEC1Ev(ptr noundef nonnull align 1 dereferenceable(1) %ref.tmp10) #3
  invoke void @_ZNSt7__cxx1112basic_stringIcSt11char_traitsIcESaIcEEC1EPKcRKS3_(ptr noundef nonnull align 8 dereferenceable(32) %ref.tmp, ptr noundef @.str.3, ptr noundef nonnull align 1 dereferenceable(1) %ref.tmp10)
          to label %invoke.cont unwind label %lpad

invoke.cont:                                      ; preds = %sw.epilog
  %call = invoke noundef i32 @_ZStorSt13_Ios_OpenmodeS_(i32 noundef 16, i32 noundef 8)
          to label %invoke.cont12 unwind label %lpad11

invoke.cont12:                                    ; preds = %invoke.cont
  invoke void @_ZNSt7__cxx1118basic_stringstreamIcSt11char_traitsIcESaIcEEC1ERKNS_12basic_stringIcS2_S3_EESt13_Ios_Openmode(ptr noundef nonnull align 8 dereferenceable(128) %ss, ptr noundef nonnull align 8 dereferenceable(32) %ref.tmp, i32 noundef %call)
          to label %invoke.cont13 unwind label %lpad11

invoke.cont13:                                    ; preds = %invoke.cont12
  call void @_ZNSt7__cxx1112basic_stringIcSt11char_traitsIcESaIcEED1Ev(ptr noundef nonnull align 8 dereferenceable(32) %ref.tmp) #3
  call void @_ZNSaIcED1Ev(ptr noundef nonnull align 1 dereferenceable(1) %ref.tmp10) #3
  %add.ptr = getelementptr inbounds i8, ptr %ss, i64 16
  %1 = load i32, ptr %style.addr, align 4
  %call16 = invoke noundef nonnull align 8 dereferenceable(8) ptr @_ZNSolsEi(ptr noundef nonnull align 8 dereferenceable(8) %add.ptr, i32 noundef %1)
          to label %invoke.cont15 unwind label %lpad14

invoke.cont15:                                    ; preds = %invoke.cont13
  store i1 true, ptr %cleanup.isactive, align 1
  %exception = call ptr @__cxa_allocate_exception(i64 16) #3
  invoke void @_ZNKSt7__cxx1118basic_stringstreamIcSt11char_traitsIcESaIcEE3strEv(ptr sret(%"class.std::__cxx11::basic_string") align 8 %ref.tmp17, ptr noundef nonnull align 8 dereferenceable(128) %ss)
          to label %invoke.cont19 unwind label %lpad18

invoke.cont19:                                    ; preds = %invoke.cont15
  %call20 = call noundef ptr @_ZNKSt7__cxx1112basic_stringIcSt11char_traitsIcESaIcEE5c_strEv(ptr noundef nonnull align 8 dereferenceable(32) %ref.tmp17) #3
  invoke void @_ZN19OpenColorIO_v2_4dev9ExceptionC1EPKc(ptr noundef nonnull align 8 dereferenceable(16) %exception, ptr noundef %call20)
          to label %invoke.cont22 unwind label %lpad21

invoke.cont22:                                    ; preds = %invoke.cont19
  store i1 false, ptr %cleanup.isactive, align 1
  invoke void @__cxa_throw(ptr %exception, ptr @_ZTIN19OpenColorIO_v2_4dev9ExceptionE, ptr @_ZN19OpenColorIO_v2_4dev9ExceptionD1Ev) #13
          to label %unreachable unwind label %lpad21

lpad:                                             ; preds = %sw.epilog
  %2 = landingpad { ptr, i32 }
          cleanup
  %3 = extractvalue { ptr, i32 } %2, 0
  store ptr %3, ptr %exn.slot, align 8
  %4 = extractvalue { ptr, i32 } %2, 1
  store i32 %4, ptr %ehselector.slot, align 4
  br label %ehcleanup

lpad11:                                           ; preds = %invoke.cont12, %invoke.cont
  %5 = landingpad { ptr, i32 }
          cleanup
  %6 = extractvalue { ptr, i32 } %5, 0
  store ptr %6, ptr %exn.slot, align 8
  %7 = extractvalue { ptr, i32 } %5, 1
  store i32 %7, ptr %ehselector.slot, align 4
  call void @_ZNSt7__cxx1112basic_stringIcSt11char_traitsIcESaIcEED1Ev(ptr noundef nonnull align 8 dereferenceable(32) %ref.tmp) #3
  br label %ehcleanup

ehcleanup:                                        ; preds = %lpad11, %lpad
  call void @_ZNSaIcED1Ev(ptr noundef nonnull align 1 dereferenceable(1) %ref.tmp10) #3
  br label %eh.resume

lpad14:                                           ; preds = %invoke.cont13
  %8 = landingpad { ptr, i32 }
          cleanup
  %9 = extractvalue { ptr, i32 } %8, 0
  store ptr %9, ptr %exn.slot, align 8
  %10 = extractvalue { ptr, i32 } %8, 1
  store i32 %10, ptr %ehselector.slot, align 4
  br label %ehcleanup25

lpad18:                                           ; preds = %invoke.cont15
  %11 = landingpad { ptr, i32 }
          cleanup
  %12 = extractvalue { ptr, i32 } %11, 0
  store ptr %12, ptr %exn.slot, align 8
  %13 = extractvalue { ptr, i32 } %11, 1
  store i32 %13, ptr %ehselector.slot, align 4
  br label %ehcleanup24

lpad21:                                           ; preds = %invoke.cont22, %invoke.cont19
  %14 = landingpad { ptr, i32 }
          cleanup
  %15 = extractvalue { ptr, i32 } %14, 0
  store ptr %15, ptr %exn.slot, align 8
  %16 = extractvalue { ptr, i32 } %14, 1
  store i32 %16, ptr %ehselector.slot, align 4
  call void @_ZNSt7__cxx1112basic_stringIcSt11char_traitsIcESaIcEED1Ev(ptr noundef nonnull align 8 dereferenceable(32) %ref.tmp17) #3
  br label %ehcleanup24

ehcleanup24:                                      ; preds = %lpad21, %lpad18
  %cleanup.is_active = load i1, ptr %cleanup.isactive, align 1
  br i1 %cleanup.is_active, label %cleanup.action, label %cleanup.done

cleanup.action:                                   ; preds = %ehcleanup24
  call void @__cxa_free_exception(ptr %exception) #3
  br label %cleanup.done

cleanup.done:                                     ; preds = %cleanup.action, %ehcleanup24
  br label %ehcleanup25

ehcleanup25:                                      ; preds = %cleanup.done, %lpad14
  call void @_ZNSt7__cxx1118basic_stringstreamIcSt11char_traitsIcESaIcEED1Ev(ptr noundef nonnull align 8 dereferenceable(128) %ss) #3
  br label %eh.resume

return:                                           ; preds = %sw.bb9, %sw.bb8, %sw.bb7, %sw.bb6, %sw.bb5, %sw.bb4, %sw.bb3, %sw.bb2, %sw.bb1, %sw.bb
  %17 = load ptr, ptr %retval, align 8
  ret ptr %17

eh.resume:                                        ; preds = %ehcleanup25, %ehcleanup
  %exn = load ptr, ptr %exn.slot, align 8
  %sel = load i32, ptr %ehselector.slot, align 4
  %lpad.val = insertvalue { ptr, i32 } poison, ptr %exn, 0
  %lpad.val26 = insertvalue { ptr, i32 } %lpad.val, i32 %sel, 1
  resume { ptr, i32 } %lpad.val26

unreachable:                                      ; preds = %invoke.cont22
  unreachable
}