; Function Attrs: mustprogress uwtable
define hidden noundef nonnull ptr @_ZN19OpenColorIO_v2_4dev11GammaOpData20ConvertStyleToStringENS0_5StyleE(i32 noundef %style) local_unnamed_addr #3 align 2 personality ptr @__gxx_personality_v0 {
entry:
  %ss = alloca %"class.std::__cxx11::basic_stringstream", align 8
  %ref.tmp = alloca %"class.std::__cxx11::basic_string", align 8
  %ref.tmp10 = alloca %"class.std::allocator", align 1
  %ref.tmp17 = alloca %"class.std::__cxx11::basic_string", align 8
  %0 = icmp ult i32 %style, 10
  br i1 %0, label %switch.lookup, label %sw.epilog

sw.epilog:                                        ; preds = %entry
  call void @_ZNSaIcEC1Ev(ptr noundef nonnull align 1 dereferenceable(1) %ref.tmp10) #18
  invoke void @_ZNSt7__cxx1112basic_stringIcSt11char_traitsIcESaIcEEC1EPKcRKS3_(ptr noundef nonnull align 8 dereferenceable(32) %ref.tmp, ptr noundef nonnull @.str.3, ptr noundef nonnull align 1 dereferenceable(1) %ref.tmp10)
          to label %invoke.cont unwind label %lpad

invoke.cont:                                      ; preds = %sw.epilog
  invoke void @_ZNSt7__cxx1118basic_stringstreamIcSt11char_traitsIcESaIcEEC1ERKNS_12basic_stringIcS2_S3_EESt13_Ios_Openmode(ptr noundef nonnull align 8 dereferenceable(128) %ss, ptr noundef nonnull align 8 dereferenceable(32) %ref.tmp, i32 noundef 24)
          to label %invoke.cont13 unwind label %lpad11

invoke.cont13:                                    ; preds = %invoke.cont
  call void @_ZNSt7__cxx1112basic_stringIcSt11char_traitsIcESaIcEED1Ev(ptr noundef nonnull align 8 dereferenceable(32) %ref.tmp) #18
  call void @_ZNSaIcED1Ev(ptr noundef nonnull align 1 dereferenceable(1) %ref.tmp10) #18
  %add.ptr = getelementptr inbounds i8, ptr %ss, i64 16
  %call16 = invoke noundef nonnull align 8 dereferenceable(8) ptr @_ZNSolsEi(ptr noundef nonnull align 8 dereferenceable(8) %add.ptr, i32 noundef %style)
          to label %invoke.cont15 unwind label %lpad14

invoke.cont15:                                    ; preds = %invoke.cont13
  %exception = call ptr @__cxa_allocate_exception(i64 16) #18
  invoke void @_ZNKSt7__cxx1118basic_stringstreamIcSt11char_traitsIcESaIcEE3strEv(ptr nonnull sret(%"class.std::__cxx11::basic_string") align 8 %ref.tmp17, ptr noundef nonnull align 8 dereferenceable(128) %ss)
          to label %invoke.cont19 unwind label %ehcleanup24.thread

invoke.cont19:                                    ; preds = %invoke.cont15
  %call20 = call noundef ptr @_ZNKSt7__cxx1112basic_stringIcSt11char_traitsIcESaIcEE5c_strEv(ptr noundef nonnull align 8 dereferenceable(32) %ref.tmp17) #18
  invoke void @_ZN19OpenColorIO_v2_4dev9ExceptionC1EPKc(ptr noundef nonnull align 8 dereferenceable(16) %exception, ptr noundef %call20)
          to label %invoke.cont22 unwind label %ehcleanup24.thread10

ehcleanup24.thread10:                             ; preds = %invoke.cont19
  %1 = landingpad { ptr, i32 }
          cleanup
  call void @_ZNSt7__cxx1112basic_stringIcSt11char_traitsIcESaIcEED1Ev(ptr noundef nonnull align 8 dereferenceable(32) %ref.tmp17) #18
  br label %cleanup.action

invoke.cont22:                                    ; preds = %invoke.cont19
  invoke void @__cxa_throw(ptr nonnull %exception, ptr nonnull @_ZTIN19OpenColorIO_v2_4dev9ExceptionE, ptr nonnull @_ZN19OpenColorIO_v2_4dev9ExceptionD1Ev) #19
          to label %unreachable unwind label %ehcleanup24

lpad:                                             ; preds = %sw.epilog
  %2 = landingpad { ptr, i32 }
          cleanup
  br label %ehcleanup

lpad11:                                           ; preds = %invoke.cont
  %3 = landingpad { ptr, i32 }
          cleanup
  call void @_ZNSt7__cxx1112basic_stringIcSt11char_traitsIcESaIcEED1Ev(ptr noundef nonnull align 8 dereferenceable(32) %ref.tmp) #18
  br label %ehcleanup

ehcleanup:                                        ; preds = %lpad11, %lpad
  %.pn = phi { ptr, i32 } [ %3, %lpad11 ], [ %2, %lpad ]
  call void @_ZNSaIcED1Ev(ptr noundef nonnull align 1 dereferenceable(1) %ref.tmp10) #18
  br label %eh.resume

lpad14:                                           ; preds = %invoke.cont13
  %4 = landingpad { ptr, i32 }
          cleanup
  br label %ehcleanup25

ehcleanup24.thread:                               ; preds = %invoke.cont15
  %5 = landingpad { ptr, i32 }
          cleanup
  br label %cleanup.action

ehcleanup24:                                      ; preds = %invoke.cont22
  %6 = landingpad { ptr, i32 }
          cleanup
  call void @_ZNSt7__cxx1112basic_stringIcSt11char_traitsIcESaIcEED1Ev(ptr noundef nonnull align 8 dereferenceable(32) %ref.tmp17) #18
  br label %ehcleanup25

cleanup.action:                                   ; preds = %ehcleanup24.thread10, %ehcleanup24.thread
  %.pn39 = phi { ptr, i32 } [ %5, %ehcleanup24.thread ], [ %1, %ehcleanup24.thread10 ]
  call void @__cxa_free_exception(ptr %exception) #18
  br label %ehcleanup25

ehcleanup25:                                      ; preds = %ehcleanup24, %cleanup.action, %lpad14
  %.pn3.pn = phi { ptr, i32 } [ %.pn39, %cleanup.action ], [ %6, %ehcleanup24 ], [ %4, %lpad14 ]
  call void @_ZNSt7__cxx1118basic_stringstreamIcSt11char_traitsIcESaIcEED1Ev(ptr noundef nonnull align 8 dereferenceable(128) %ss) #18
  br label %eh.resume

switch.lookup:                                    ; preds = %entry
  %7 = zext nneg i32 %style to i64
  %switch.gep = getelementptr inbounds [10 x ptr], ptr @switch.table._ZN19OpenColorIO_v2_4dev11GammaOpData20ConvertStyleToStringENS0_5StyleE, i64 0, i64 %7
  %switch.load = load ptr, ptr %switch.gep, align 8
  ret ptr %switch.load

eh.resume:                                        ; preds = %ehcleanup25, %ehcleanup
  %.pn3.pn.pn = phi { ptr, i32 } [ %.pn3.pn, %ehcleanup25 ], [ %.pn, %ehcleanup ]
  resume { ptr, i32 } %.pn3.pn.pn

unreachable:                                      ; preds = %invoke.cont22
  unreachable
}